target datalayout = "e-m:e-p270:32:32-p271:32:32-p272:64:64-i64:64-i128:128-f80:128-n8:16:32:64-S128"
target triple = "x86_64-pc-linux-gnu"

@.str.9 = private unnamed_addr constant [3 x i8] c"rb\00", align 1
@.str.10 = private unnamed_addr constant [72 x i8] c"Scl_LibertyFileSize(): The input file is unavailable (absent or open).\0A\00", align 1

; Function Attrs: nounwind uwtable
define i64 @Scl_LibertyFileSize(ptr noundef %0) #0 {
  %2 = alloca i64, align 8
  %3 = alloca ptr, align 8
  %4 = alloca ptr, align 8
  %5 = alloca i64, align 8
  store ptr %0, ptr %3, align 8
  %6 = load ptr, ptr %3, align 8
  %7 = call noalias ptr @fopen(ptr noundef %6, ptr noundef @.str.9)
  store ptr %7, ptr %4, align 8
  %8 = load ptr, ptr %4, align 8
  %9 = icmp eq ptr %8, null
  br i1 %9, label %10, label %12

10:                                               ; preds = %1
  %11 = call i32 (ptr, ...) @printf(ptr noundef @.str.10)
  store i64 0, ptr %2, align 8
  br label %20

12:                                               ; preds = %1
  %13 = load ptr, ptr %4, align 8
  %14 = call i32 @fseek(ptr noundef %13, i64 noundef 0, i32 noundef 2)
  %15 = load ptr, ptr %4, align 8
  %16 = call i64 @ftell(ptr noundef %15)
  store i64 %16, ptr %5, align 8
  %17 = load ptr, ptr %4, align 8
  %18 = call i32 @fclose(ptr noundef %17)
  %19 = load i64, ptr %5, align 8
  store i64 %19, ptr %2, align 8
  br label %20

20:                                               ; preds = %12, %10
  %21 = load i64, ptr %2, align 8
  ret i64 %21
}