; Function Attrs: nofree nounwind uwtable
define noundef i64 @Scl_LibertyFileSize(ptr noundef readonly captures(none) %0) local_unnamed_addr #0 {
  %2 = tail call noalias ptr @fopen(ptr noundef %0, ptr noundef nonnull @.str.9)
  %3 = icmp eq ptr %2, null
  br i1 %3, label %4, label %5

4:                                                ; preds = %1
  %puts = tail call i32 @puts(ptr nonnull dereferenceable(1) @str.1)
  br label %9

5:                                                ; preds = %1
  %6 = tail call i32 @fseek(ptr noundef nonnull %2, i64 noundef 0, i32 noundef 2)
  %7 = tail call i64 @ftell(ptr noundef nonnull %2)
  %8 = tail call i32 @fclose(ptr noundef nonnull %2)
  br label %9

9:                                                ; preds = %5, %4
  %.0 = phi i64 [ 0, %4 ], [ %7, %5 ]
  ret i64 %.0
}